target datalayout = "e-m:e-p270:32:32-p271:32:32-p272:64:64-i64:64-i128:128-f80:128-n8:16:32:64-S128"
target triple = "x86_64-pc-linux-gnu"

%union.pthread_mutex_t = type { %struct.__pthread_mutex_s }
%struct.__pthread_mutex_s = type { i32, i32, i32, i32, i32, i16, i16, %struct.__pthread_internal_list }
%struct.__pthread_internal_list = type { ptr, ptr }
%struct.WOLFSSL_SESSION = type { i32, i32, %struct.wolfSSL_RefWithMutex, [32 x i8], i8, ptr, i8, i32, i32, [32 x i8], i8, [48 x i8], i16, i8, i8, i16, [20 x i8], i16, i8 }
%struct.wolfSSL_RefWithMutex = type { %union.pthread_mutex_t, i32 }
%struct.WOLFSSL_BUFFER_INFO = type { ptr, i32 }
%struct.WOLFSSL = type <{ ptr, ptr, ptr, ptr, [48 x i8], [48 x i8], ptr, ptr, ptr, ptr, ptr, ptr, ptr, ptr, ptr, ptr, ptr, ptr, ptr, i32, [4 x i8], %struct.WOLFSSL_CIPHER, ptr, %struct.Ciphers, %struct.Ciphers, [8 x i8], %struct.Buffers, ptr, ptr, %struct.WOLFSSL_ALERT_HISTORY, %struct.WOLFSSL_ALERT, i32, i32, i32, i32, i32, i32, i32, i16, [2 x i8], i32, i8, %struct.RecordLayerHeader, %struct.MsgsReceived, %struct.ProtocolVersion, %struct.ProtocolVersion, %struct.CipherSpecs, [2 x i8], %struct.Keys, %struct.Options, ptr, i8, i8, i16, [10 x i16], i8, i8, i16, i16, [38 x i8], i32, i32, [4 x i8], ptr, i8, i8, [6 x i8], ptr, ptr, i16, i8, i8, i32, i8, [3 x i8], i32, %struct.OneTimeAuth, ptr }>
%struct.WOLFSSL_CIPHER = type { i8, i8, ptr }
%struct.Ciphers = type { ptr, ptr, ptr, ptr, i8, i8 }
%struct.Buffers = type { %struct.bufferStatic, %struct.bufferStatic, %struct.WOLFSSL_BUFFER_INFO, %struct.WOLFSSL_BUFFER_INFO, %struct.WOLFSSL_BUFFER_INFO, %struct.WOLFSSL_BUFFER_INFO, i32, i32, i8, i8, i8, i8, %struct.WOLFSSL_BUFFER_INFO, %struct.WOLFSSL_BUFFER_INFO, %struct.WOLFSSL_BUFFER_INFO, %struct.WOLFSSL_BUFFER_INFO, ptr, ptr, ptr, i8, i8, i32, i32, ptr, i32, [1 x ptr] }
%struct.bufferStatic = type { [5 x i8], ptr, i32, i32, i32, i8, i8 }
%struct.WOLFSSL_ALERT_HISTORY = type { %struct.WOLFSSL_ALERT, %struct.WOLFSSL_ALERT }
%struct.WOLFSSL_ALERT = type { i32, i32 }
%struct.RecordLayerHeader = type { i8, i8, i8, [2 x i8] }
%struct.MsgsReceived = type { i32 }
%struct.ProtocolVersion = type { i8, i8 }
%struct.CipherSpecs = type { i16, i16, i16, i16, i8, i8, i8, i8, i8, i8, i8, i8 }
%struct.Keys = type { [64 x i8], [64 x i8], [32 x i8], [32 x i8], [16 x i8], [16 x i8], [8 x i8], [12 x i8], [12 x i8], i32, i32, i32, i32, i32, i32, i8, i8, i8, i8 }
%struct.Options = type { i64, i64, i8, i8, i8, i8, i8, i8, i8, i8, i8, i8, i8, i8, i8, i8, i8, i8, i8, i8, i8, i8, i8, i16, i16, i16, i16, i16, i8 }
%struct.OneTimeAuth = type { ptr, i8 }

; Function Attrs: nounwind uwtable
define i32 @wolfSSL_SESSION_up_ref(ptr noundef %0) #0 {
  %2 = alloca i32, align 4
  %3 = alloca ptr, align 8
  %4 = alloca i32, align 4
  %5 = alloca i32, align 4
  store ptr %0, ptr %3, align 8, !tbaa !53
  call void @llvm.lifetime.start.p0(i64 4, ptr %4) #9
  %6 = load ptr, ptr %3, align 8, !tbaa !53
  %7 = call ptr @ClientSessionToSession(ptr noundef %6)
  store ptr %7, ptr %3, align 8, !tbaa !53
  %8 = load ptr, ptr %3, align 8, !tbaa !53
  %9 = icmp eq ptr %8, null
  br i1 %9, label %15, label %10

10:                                               ; preds = %1
  %11 = load ptr, ptr %3, align 8, !tbaa !53
  %12 = getelementptr inbounds nuw %struct.WOLFSSL_SESSION, ptr %11, i32 0, i32 0
  %13 = load i32, ptr %12, align 8, !tbaa !103
  %14 = icmp ne i32 %13, 3
  br i1 %14, label %15, label %16

15:                                               ; preds = %10, %1
  store i32 0, ptr %2, align 4
  store i32 1, ptr %5, align 4
  br label %26

16:                                               ; preds = %10
  %17 = load ptr, ptr %3, align 8, !tbaa !53
  %18 = getelementptr inbounds nuw %struct.WOLFSSL_SESSION, ptr %17, i32 0, i32 2
  call void @wolfSSL_RefWithMutexInc(ptr noundef %18, ptr noundef %4)
  %19 = load i32, ptr %4, align 4, !tbaa !7
  %20 = icmp ne i32 %19, 0
  br i1 %20, label %21, label %25

21:                                               ; preds = %16
  br label %22

22:                                               ; preds = %21
  br label %23

23:                                               ; preds = %22
  br label %24

24:                                               ; preds = %23
  store i32 0, ptr %2, align 4
  store i32 1, ptr %5, align 4
  br label %26

25:                                               ; preds = %16
  store i32 1, ptr %2, align 4
  store i32 1, ptr %5, align 4
  br label %26

26:                                               ; preds = %25, %24, %15
  call void @llvm.lifetime.end.p0(i64 4, ptr %4) #9
  %27 = load i32, ptr %2, align 4
  ret i32 %27
}

; Function Attrs: nounwind uwtable
define ptr @wolfSSL_get1_session(ptr noundef %0) #0 {
  %2 = alloca ptr, align 8
  %3 = alloca ptr, align 8
  store ptr %0, ptr %2, align 8, !tbaa !61
  call void @llvm.lifetime.start.p0(i64 8, ptr %3) #9
  store ptr null, ptr %3, align 8, !tbaa !53
  br label %4

4:                                                ; preds = %1
  br label %5

5:                                                ; preds = %4
  br label %6

6:                                                ; preds = %5
  %7 = load ptr, ptr %2, align 8, !tbaa !61
  %8 = icmp ne ptr %7, null
  br i1 %8, label %9, label %28

9:                                                ; preds = %6
  %10 = load ptr, ptr %2, align 8, !tbaa !61
  %11 = getelementptr inbounds nuw %struct.WOLFSSL, ptr %10, i32 0, i32 27
  %12 = load ptr, ptr %11, align 16, !tbaa !89
  store ptr %12, ptr %3, align 8, !tbaa !53
  %13 = load ptr, ptr %3, align 8, !tbaa !53
  %14 = icmp ne ptr %13, null
  br i1 %14, label %15, label %27

15:                                               ; preds = %9
  %16 = load ptr, ptr %3, align 8, !tbaa !53
  %17 = getelementptr inbounds nuw %struct.WOLFSSL_SESSION, ptr %16, i32 0, i32 0
  %18 = load i32, ptr %17, align 8, !tbaa !103
  %19 = icmp eq i32 %18, 3
  br i1 %19, label %20, label %26

20:                                               ; preds = %15
  %21 = load ptr, ptr %3, align 8, !tbaa !53
  %22 = call i32 @wolfSSL_SESSION_up_ref(ptr noundef %21)
  %23 = icmp ne i32 %22, 1
  br i1 %23, label %24, label %25

24:                                               ; preds = %20
  store ptr null, ptr %3, align 8, !tbaa !53
  br label %25

25:                                               ; preds = %24, %20
  br label %26

26:                                               ; preds = %25, %15
  br label %27

27:                                               ; preds = %26, %9
  br label %28

28:                                               ; preds = %27, %6
  %29 = load ptr, ptr %3, align 8, !tbaa !53
  call void @llvm.lifetime.end.p0(i64 8, ptr %3) #9
  ret ptr %29
}