; Function Attrs: nounwind uwtable
define ptr @wolfSSL_get1_session(ptr noundef readonly captures(address_is_null) %0) local_unnamed_addr #0 {
  %2 = alloca i32, align 4
  %.not = icmp eq ptr %0, null
  br i1 %.not, label %17, label %3

3:                                                ; preds = %1
  %4 = getelementptr inbounds nuw i8, ptr %0, i64 624
  %5 = load ptr, ptr %4, align 16, !tbaa !76
  %.not8 = icmp eq ptr %5, null
  br i1 %.not8, label %17, label %6

6:                                                ; preds = %3
  %7 = load i32, ptr %5, align 8, !tbaa !84
  %8 = icmp eq i32 %7, 3
  br i1 %8, label %9, label %17

9:                                                ; preds = %6
  call void @llvm.lifetime.start.p0(i64 4, ptr nonnull %2) #22
  %10 = tail call ptr @ClientSessionToSession(ptr noundef nonnull %5)
  %11 = icmp eq ptr %10, null
  br i1 %11, label %wolfSSL_SESSION_up_ref.exit.thread, label %12

12:                                               ; preds = %9
  %13 = load i32, ptr %10, align 8, !tbaa !84
  %.not.i = icmp eq i32 %13, 3
  br i1 %.not.i, label %wolfSSL_SESSION_up_ref.exit, label %wolfSSL_SESSION_up_ref.exit.thread

wolfSSL_SESSION_up_ref.exit.thread:               ; preds = %12, %9
  call void @llvm.lifetime.end.p0(i64 4, ptr nonnull %2) #22
  br label %16

wolfSSL_SESSION_up_ref.exit:                      ; preds = %12
  %14 = getelementptr inbounds nuw i8, ptr %10, i64 8
  call void @wolfSSL_RefWithMutexInc(ptr noundef nonnull %14, ptr noundef nonnull %2) #22
  %15 = load i32, ptr %2, align 4, !tbaa !3
  %.fr = freeze i32 %15
  %.not5.i.not = icmp eq i32 %.fr, 0
  call void @llvm.lifetime.end.p0(i64 4, ptr nonnull %2) #22
  br i1 %.not5.i.not, label %17, label %16

16:                                               ; preds = %wolfSSL_SESSION_up_ref.exit.thread, %wolfSSL_SESSION_up_ref.exit
  br label %17

17:                                               ; preds = %16, %wolfSSL_SESSION_up_ref.exit, %3, %6, %1
  %.0 = phi ptr [ %5, %6 ], [ null, %3 ], [ null, %1 ], [ null, %16 ], [ %5, %wolfSSL_SESSION_up_ref.exit ]
  ret ptr %.0
}